target datalayout = "e-m:e-p270:32:32-p271:32:32-p272:64:64-i64:64-i128:128-f80:128-n8:16:32:64-S128"
target triple = "x86_64-pc-linux-gnu"

%class.LogTagSet = type { ptr, i64, [5 x i32], [4 x i8], %class.LogOutputList, %class.LogDecorators, ptr }
%class.LogOutputList = type <{ [6 x ptr], i32, [4 x i8] }>
%class.LogDecorators = type { i32 }
%class.ErrnoPreserver = type { i32 }

@.str.185 = private unnamed_addr constant [59 x i8] c"mmap failed: [0x%016lx - 0x%016lx), (%lu bytes) errno=(%s)\00", align 1
@.str.218 = private unnamed_addr constant [44 x i8] c"Kernel rejected 0x%016lx, offered 0x%016lx.\00", align 1
@_ZN16LogTagSetMappingILN6LogTag4typeE105ELS1_78ELS1_0ELS1_0ELS1_0ELS1_0EE7_tagsetE = linkonce_odr hidden global %class.LogTagSet zeroinitializer, comdat, align 8
@.str.337 = private unnamed_addr constant [61 x i8] c"munmap failed: [0x%016lx - 0x%016lx), (%lu bytes) errno=(%s)\00", align 1

; Function Attrs: mustprogress nounwind uwtable
define linkonce_odr hidden noundef zeroext i1 @_ZNK13LogOutputList8is_levelEN8LogLevel4typeE(ptr noundef nonnull align 8 dereferenceable(52) %0, i32 noundef %1) #1 comdat align 2 {
  %3 = alloca ptr, align 8
  %4 = alloca i32, align 4
  store ptr %0, ptr %3, align 8
  store i32 %1, ptr %4, align 4
  %5 = load ptr, ptr %3, align 8
  %6 = getelementptr inbounds %class.LogOutputList, ptr %5, i32 0, i32 0
  %7 = load i32, ptr %4, align 4
  %8 = zext i32 %7 to i64
  %9 = getelementptr inbounds [6 x ptr], ptr %6, i64 0, i64 %8
  %10 = load volatile ptr, ptr %9, align 8
  %11 = icmp ne ptr %10, null
  ret i1 %11
}

; Function Attrs: mustprogress nounwind uwtable
define linkonce_odr hidden noundef zeroext i1 @_ZNK9LogTagSet8is_levelEN8LogLevel4typeE(ptr noundef nonnull align 8 dereferenceable(112) %0, i32 noundef %1) #1 comdat align 2 {
  %3 = alloca ptr, align 8
  %4 = alloca i32, align 4
  store ptr %0, ptr %3, align 8
  store i32 %1, ptr %4, align 4
  %5 = load ptr, ptr %3, align 8
  %6 = getelementptr inbounds %class.LogTagSet, ptr %5, i32 0, i32 4
  %7 = load i32, ptr %4, align 4
  %8 = call noundef zeroext i1 @_ZNK13LogOutputList8is_levelEN8LogLevel4typeE(ptr noundef nonnull align 8 dereferenceable(52) %6, i32 noundef %7)
  ret i1 %8
}

; Function Attrs: mustprogress nounwind uwtable
define linkonce_odr hidden noundef nonnull align 8 dereferenceable(112) ptr @_ZN16LogTagSetMappingILN6LogTag4typeE105ELS1_78ELS1_0ELS1_0ELS1_0ELS1_0EE6tagsetEv() #1 comdat align 2 {
  ret ptr @_ZN16LogTagSetMappingILN6LogTag4typeE105ELS1_78ELS1_0ELS1_0ELS1_0ELS1_0EE7_tagsetE
}

; Function Attrs: mustprogress nounwind uwtable
define linkonce_odr hidden void @_ZN14ErrnoPreserverD2Ev(ptr noundef nonnull align 4 dereferenceable(4) %0) unnamed_addr #1 comdat align 2 {
  %2 = alloca ptr, align 8
  store ptr %0, ptr %2, align 8
  %3 = load ptr, ptr %2, align 8
  %4 = getelementptr inbounds %class.ErrnoPreserver, ptr %3, i32 0, i32 0
  %5 = load i32, ptr %4, align 4
  %6 = call ptr @__errno_location() #14
  store i32 %5, ptr %6, align 4
  ret void
}

; Function Attrs: mustprogress nounwind uwtable
define linkonce_odr hidden noundef i32 @_ZN14ErrnoPreserver11saved_errnoEv(ptr noundef nonnull align 4 dereferenceable(4) %0) #1 comdat align 2 {
  %2 = alloca ptr, align 8
  store ptr %0, ptr %2, align 8
  %3 = load ptr, ptr %2, align 8
  %4 = getelementptr inbounds %class.ErrnoPreserver, ptr %3, i32 0, i32 0
  %5 = load i32, ptr %4, align 4
  ret i32 %5
}

; Function Attrs: mustprogress nounwind uwtable
define linkonce_odr hidden void @_ZN14ErrnoPreserverC2Ev(ptr noundef nonnull align 4 dereferenceable(4) %0) unnamed_addr #1 comdat align 2 {
  %2 = alloca ptr, align 8
  store ptr %0, ptr %2, align 8
  %3 = load ptr, ptr %2, align 8
  %4 = call ptr @__errno_location() #14
  %5 = load i32, ptr %4, align 4
  %6 = getelementptr inbounds %class.ErrnoPreserver, ptr %3, i32 0, i32 0
  store i32 %5, ptr %6, align 4
  ret void
}

; Function Attrs: mustprogress nounwind uwtable
define internal noundef i32 @_ZL11anon_munmapPcm(ptr noundef %0, i64 noundef %1) #1 {
  %3 = alloca i32, align 4
  %4 = alloca ptr, align 8
  %5 = alloca i64, align 8
  %6 = alloca %class.ErrnoPreserver, align 4
  store ptr %0, ptr %4, align 8
  store i64 %1, ptr %5, align 8
  %7 = load ptr, ptr %4, align 8
  %8 = load i64, ptr %5, align 8
  %9 = call i32 @munmap(ptr noundef %7, i64 noundef %8) #12
  %10 = icmp ne i32 %9, 0
  br i1 %10, label %11, label %25

11:                                               ; preds = %2
  call void @_ZN14ErrnoPreserverC2Ev(ptr noundef nonnull align 4 dereferenceable(4) %6)
  %12 = call noundef zeroext i1 @_ZN7LogImplILN6LogTag4typeE105ELS1_78ELS1_0ELS1_0ELS1_0ELS1_0EE8is_levelEN8LogLevel4typeE(i32 noundef 1)
  br i1 %12, label %14, label %13

13:                                               ; preds = %11
  br label %24

14:                                               ; preds = %11
  %15 = load ptr, ptr %4, align 8
  %16 = call noundef i64 @_Z3p2iPVKv(ptr noundef %15)
  %17 = load ptr, ptr %4, align 8
  %18 = load i64, ptr %5, align 8
  %19 = getelementptr inbounds i8, ptr %17, i64 %18
  %20 = call noundef i64 @_Z3p2iPVKv(ptr noundef %19)
  %21 = load i64, ptr %5, align 8
  %22 = call noundef i32 @_ZN14ErrnoPreserver11saved_errnoEv(ptr noundef nonnull align 4 dereferenceable(4) %6)
  %23 = call noundef ptr @_ZN2os8strerrorEi(i32 noundef %22)
  call void (ptr, ...) @_ZN7LogImplILN6LogTag4typeE105ELS1_78ELS1_0ELS1_0ELS1_0ELS1_0EE5writeILN8LogLevel4typeE1EEEvPKcz(ptr noundef @.str.337, i64 noundef %16, i64 noundef %20, i64 noundef %21, ptr noundef %23)
  br label %24

24:                                               ; preds = %14, %13
  store i32 0, ptr %3, align 4
  call void @_ZN14ErrnoPreserverD2Ev(ptr noundef nonnull align 4 dereferenceable(4) %6) #12
  br label %26

25:                                               ; preds = %2
  store i32 1, ptr %3, align 4
  br label %26

26:                                               ; preds = %25, %24
  %27 = load i32, ptr %3, align 4
  ret i32 %27
}

; Function Attrs: mustprogress nounwind uwtable
define linkonce_odr hidden noundef i64 @_Z3p2iPVKv(ptr noundef %0) #1 comdat {
  %2 = alloca ptr, align 8
  store ptr %0, ptr %2, align 8
  %3 = load ptr, ptr %2, align 8
  %4 = ptrtoint ptr %3 to i64
  ret i64 %4
}

; Function Attrs: mustprogress nounwind uwtable
define linkonce_odr hidden noundef zeroext i1 @_ZN7LogImplILN6LogTag4typeE105ELS1_78ELS1_0ELS1_0ELS1_0ELS1_0EE8is_levelEN8LogLevel4typeE(i32 noundef %0) #1 comdat align 2 {
  %2 = alloca i32, align 4
  store i32 %0, ptr %2, align 4
  %3 = call noundef nonnull align 8 dereferenceable(112) ptr @_ZN16LogTagSetMappingILN6LogTag4typeE105ELS1_78ELS1_0ELS1_0ELS1_0ELS1_0EE6tagsetEv()
  %4 = load i32, ptr %2, align 4
  %5 = call noundef zeroext i1 @_ZNK9LogTagSet8is_levelEN8LogLevel4typeE(ptr noundef nonnull align 8 dereferenceable(112) %3, i32 noundef %4)
  ret i1 %5
}

; Function Attrs: mustprogress nounwind uwtable
define internal noundef ptr @_ZL9anon_mmapPcm(ptr noundef %0, i64 noundef %1) #1 {
  %3 = alloca ptr, align 8
  %4 = alloca ptr, align 8
  %5 = alloca i64, align 8
  %6 = alloca i32, align 4
  %7 = alloca ptr, align 8
  %8 = alloca %class.ErrnoPreserver, align 4
  store ptr %0, ptr %4, align 8
  store i64 %1, ptr %5, align 8
  %9 = load ptr, ptr %4, align 8
  %10 = icmp ne ptr %9, null
  %11 = select i1 %10, i32 1048576, i32 0
  %12 = or i32 16418, %11
  store i32 %12, ptr %6, align 4
  %13 = load ptr, ptr %4, align 8
  %14 = load i64, ptr %5, align 8
  %15 = load i32, ptr %6, align 4
  %16 = call ptr @mmap64(ptr noundef %13, i64 noundef %14, i32 noundef 0, i32 noundef %15, i32 noundef -1, i64 noundef 0) #12
  store ptr %16, ptr %7, align 8
  %17 = load ptr, ptr %7, align 8
  %18 = icmp eq ptr %17, inttoptr (i64 -1 to ptr)
  br i1 %18, label %19, label %33

19:                                               ; preds = %2
  call void @_ZN14ErrnoPreserverC2Ev(ptr noundef nonnull align 4 dereferenceable(4) %8)
  %20 = call noundef zeroext i1 @_ZN7LogImplILN6LogTag4typeE105ELS1_78ELS1_0ELS1_0ELS1_0ELS1_0EE8is_levelEN8LogLevel4typeE(i32 noundef 1)
  br i1 %20, label %22, label %21

21:                                               ; preds = %19
  br label %32

22:                                               ; preds = %19
  %23 = load ptr, ptr %4, align 8
  %24 = call noundef i64 @_Z3p2iPVKv(ptr noundef %23)
  %25 = load ptr, ptr %4, align 8
  %26 = load i64, ptr %5, align 8
  %27 = getelementptr inbounds i8, ptr %25, i64 %26
  %28 = call noundef i64 @_Z3p2iPVKv(ptr noundef %27)
  %29 = load i64, ptr %5, align 8
  %30 = call noundef i32 @_ZN14ErrnoPreserver11saved_errnoEv(ptr noundef nonnull align 4 dereferenceable(4) %8)
  %31 = call noundef ptr @_ZN2os8strerrorEi(i32 noundef %30)
  call void (ptr, ...) @_ZN7LogImplILN6LogTag4typeE105ELS1_78ELS1_0ELS1_0ELS1_0ELS1_0EE5writeILN8LogLevel4typeE1EEEvPKcz(ptr noundef @.str.185, i64 noundef %24, i64 noundef %28, i64 noundef %29, ptr noundef %31)
  br label %32

32:                                               ; preds = %22, %21
  store ptr null, ptr %3, align 8
  call void @_ZN14ErrnoPreserverD2Ev(ptr noundef nonnull align 4 dereferenceable(4) %8) #12
  br label %35

33:                                               ; preds = %2
  %34 = load ptr, ptr %7, align 8
  store ptr %34, ptr %3, align 8
  br label %35

35:                                               ; preds = %33, %32
  %36 = load ptr, ptr %3, align 8
  ret ptr %36
}

; Function Attrs: mustprogress nounwind uwtable
define hidden noundef ptr @_ZN2os28pd_attempt_reserve_memory_atEPcmb(ptr noundef %0, i64 noundef %1, i1 noundef zeroext %2) #1 align 2 {
  %4 = alloca ptr, align 8
  %5 = alloca ptr, align 8
  %6 = alloca i64, align 8
  %7 = alloca i8, align 1
  %8 = alloca ptr, align 8
  store ptr %0, ptr %5, align 8
  store i64 %1, ptr %6, align 8
  %9 = zext i1 %2 to i8
  store i8 %9, ptr %7, align 1
  %10 = load ptr, ptr %5, align 8
  %11 = load i64, ptr %6, align 8
  %12 = call noundef ptr @_ZL9anon_mmapPcm(ptr noundef %10, i64 noundef %11)
  store ptr %12, ptr %8, align 8
  %13 = load ptr, ptr %8, align 8
  %14 = load ptr, ptr %5, align 8
  %15 = icmp eq ptr %13, %14
  br i1 %15, label %16, label %18

16:                                               ; preds = %3
  %17 = load ptr, ptr %5, align 8
  store ptr %17, ptr %4, align 8
  br label %34

18:                                               ; preds = %3
  %19 = load ptr, ptr %8, align 8
  %20 = icmp ne ptr %19, null
  br i1 %20, label %21, label %33

21:                                               ; preds = %18
  %22 = call noundef zeroext i1 @_ZN7LogImplILN6LogTag4typeE105ELS1_78ELS1_0ELS1_0ELS1_0ELS1_0EE8is_levelEN8LogLevel4typeE(i32 noundef 1)
  br i1 %22, label %24, label %23

23:                                               ; preds = %21
  br label %29

24:                                               ; preds = %21
  %25 = load ptr, ptr %5, align 8
  %26 = call noundef i64 @_Z3p2iPVKv(ptr noundef %25)
  %27 = load ptr, ptr %8, align 8
  %28 = call noundef i64 @_Z3p2iPVKv(ptr noundef %27)
  call void (ptr, ...) @_ZN7LogImplILN6LogTag4typeE105ELS1_78ELS1_0ELS1_0ELS1_0ELS1_0EE5writeILN8LogLevel4typeE1EEEvPKcz(ptr noundef @.str.218, i64 noundef %26, i64 noundef %28)
  br label %29

29:                                               ; preds = %24, %23
  %30 = load ptr, ptr %8, align 8
  %31 = load i64, ptr %6, align 8
  %32 = call noundef i32 @_ZL11anon_munmapPcm(ptr noundef %30, i64 noundef %31)
  br label %33

33:                                               ; preds = %29, %18
  store ptr null, ptr %4, align 8
  br label %34

34:                                               ; preds = %33, %16
  %35 = load ptr, ptr %4, align 8
  ret ptr %35
}