; Function Attrs: mustprogress nounwind uwtable
define hidden noundef ptr @_ZN2os28pd_attempt_reserve_memory_atEPcmb(ptr noundef %0, i64 noundef %1, i1 zeroext %2) local_unnamed_addr #0 align 2 {
  %.not.i = icmp eq ptr %0, null
  %4 = select i1 %.not.i, i32 16418, i32 1064994
  %5 = tail call ptr @mmap64(ptr noundef %0, i64 noundef %1, i32 noundef 0, i32 noundef %4, i32 noundef -1, i64 noundef 0) #26
  %6 = icmp eq ptr %5, inttoptr (i64 -1 to ptr)
  br i1 %6, label %7, label %_ZL9anon_mmapPcm.exit

7:                                                ; preds = %3
  %8 = tail call ptr @__errno_location() #28
  %9 = load i32, ptr %8, align 4
  %10 = load volatile ptr, ptr getelementptr inbounds (i8, ptr @_ZN16LogTagSetMappingILN6LogTag4typeE105ELS1_78ELS1_0ELS1_0ELS1_0ELS1_0EE7_tagsetE, i64 48), align 8
  %.not12.i = icmp eq ptr %10, null
  br i1 %.not12.i, label %_ZL9anon_mmapPcm.exit.thread, label %11

11:                                               ; preds = %7
  %12 = ptrtoint ptr %0 to i64
  %13 = getelementptr inbounds i8, ptr %0, i64 %1
  %14 = ptrtoint ptr %13 to i64
  %15 = tail call noundef ptr @_ZN2os8strerrorEi(i32 noundef %9) #26
  tail call void (ptr, ...) @_ZN7LogImplILN6LogTag4typeE105ELS1_78ELS1_0ELS1_0ELS1_0ELS1_0EE5writeILN8LogLevel4typeE1EEEvPKcz(ptr noundef nonnull @.str.185, i64 noundef %12, i64 noundef %14, i64 noundef %1, ptr noundef %15)
  br label %_ZL9anon_mmapPcm.exit.thread

_ZL9anon_mmapPcm.exit:                            ; preds = %3
  %16 = icmp eq ptr %5, %0
  br i1 %16, label %_ZL11anon_munmapPcm.exit, label %17

_ZL9anon_mmapPcm.exit.thread:                     ; preds = %7, %11
  store i32 %9, ptr %8, align 4
  br label %_ZL11anon_munmapPcm.exit

17:                                               ; preds = %_ZL9anon_mmapPcm.exit
  %.not = icmp eq ptr %5, null
  br i1 %.not, label %_ZL11anon_munmapPcm.exit, label %18

18:                                               ; preds = %17
  %19 = load volatile ptr, ptr getelementptr inbounds (i8, ptr @_ZN16LogTagSetMappingILN6LogTag4typeE105ELS1_78ELS1_0ELS1_0ELS1_0ELS1_0EE7_tagsetE, i64 48), align 8
  %.not18 = icmp eq ptr %19, null
  br i1 %.not18, label %23, label %20

20:                                               ; preds = %18
  %21 = ptrtoint ptr %0 to i64
  %22 = ptrtoint ptr %5 to i64
  tail call void (ptr, ...) @_ZN7LogImplILN6LogTag4typeE105ELS1_78ELS1_0ELS1_0ELS1_0ELS1_0EE5writeILN8LogLevel4typeE1EEEvPKcz(ptr noundef nonnull @.str.218, i64 noundef %21, i64 noundef %22)
  br label %23

23:                                               ; preds = %18, %20
  %24 = tail call i32 @munmap(ptr noundef nonnull %5, i64 noundef %1) #26
  %.not.i12 = icmp eq i32 %24, 0
  br i1 %.not.i12, label %_ZL11anon_munmapPcm.exit, label %25

25:                                               ; preds = %23
  %26 = tail call ptr @__errno_location() #28
  %27 = load i32, ptr %26, align 4
  %28 = load volatile ptr, ptr getelementptr inbounds (i8, ptr @_ZN16LogTagSetMappingILN6LogTag4typeE105ELS1_78ELS1_0ELS1_0ELS1_0ELS1_0EE7_tagsetE, i64 48), align 8
  %.not7.i = icmp eq ptr %28, null
  br i1 %.not7.i, label %34, label %29

29:                                               ; preds = %25
  %30 = ptrtoint ptr %5 to i64
  %31 = getelementptr inbounds i8, ptr %5, i64 %1
  %32 = ptrtoint ptr %31 to i64
  %33 = tail call noundef ptr @_ZN2os8strerrorEi(i32 noundef %27) #26
  tail call void (ptr, ...) @_ZN7LogImplILN6LogTag4typeE105ELS1_78ELS1_0ELS1_0ELS1_0ELS1_0EE5writeILN8LogLevel4typeE1EEEvPKcz(ptr noundef nonnull @.str.337, i64 noundef %30, i64 noundef %32, i64 noundef %1, ptr noundef %33)
  br label %34

34:                                               ; preds = %29, %25
  store i32 %27, ptr %26, align 4
  br label %_ZL11anon_munmapPcm.exit

_ZL11anon_munmapPcm.exit:                         ; preds = %_ZL9anon_mmapPcm.exit.thread, %34, %23, %17, %_ZL9anon_mmapPcm.exit
  %.0 = phi ptr [ %0, %_ZL9anon_mmapPcm.exit ], [ null, %17 ], [ null, %23 ], [ null, %34 ], [ null, %_ZL9anon_mmapPcm.exit.thread ]
  ret ptr %.0
}